; Function Attrs: mustprogress nofree norecurse nounwind willreturn memory(argmem: read) uwtable
define zeroext i1 @lean_string_eq_cold(ptr noundef readonly captures(none) %0, ptr noundef readonly captures(none) %1) local_unnamed_addr #26 {
  %3 = getelementptr inbounds nuw i8, ptr %0, i64 32
  %4 = getelementptr inbounds nuw i8, ptr %1, i64 32
  %5 = getelementptr i8, ptr %0, i64 8
  %.val = load i64, ptr %5, align 8, !tbaa !30
  %bcmp = tail call i32 @bcmp(ptr nonnull %3, ptr nonnull %4, i64 %.val)
  %6 = icmp eq i32 %bcmp, 0
  ret i1 %6
}